target datalayout = "e-m:e-p270:32:32-p271:32:32-p272:64:64-i64:64-i128:128-f80:128-n8:16:32:64-S128"
target triple = "x86_64-pc-linux-gnu"

%"class.icu_77::UObject" = type { ptr }
%"class.icu_77::UnicodeString" = type { %"class.icu_77::Replaceable", %"union.icu_77::UnicodeString::StackBufferOrFields" }
%"class.icu_77::Replaceable" = type { %"class.icu_77::UObject" }
%"union.icu_77::UnicodeString::StackBufferOrFields" = type { %struct.anon.0, [32 x i8] }
%struct.anon.0 = type { i16, i32, i32, ptr }
%"class.icu_77::ScientificNumberFormatter" = type { %"class.icu_77::UObject", %"class.icu_77::UnicodeString", ptr, ptr }
%struct.anon = type { i16, [27 x i16] }
%"class.icu_77::FieldPositionIterator" = type <{ %"class.icu_77::UObject", ptr, i32, [4 x i8] }>

@_ZTVN6icu_777UObjectE = available_externally unnamed_addr constant { [5 x ptr] } { [5 x ptr] [ptr null, ptr @_ZTIN6icu_777UObjectE, ptr @_ZN6icu_777UObjectD1Ev, ptr @_ZN6icu_777UObjectD0Ev, ptr @_ZNK6icu_777UObject17getDynamicClassIDEv] }, align 8

; Function Attrs: inlinehint mustprogress nounwind uwtable
define linkonce_odr void @_ZN6icu_777UObjectC2Ev(ptr noundef nonnull align 8 dereferenceable(8) %0) unnamed_addr #3 comdat align 2 {
  %2 = alloca ptr, align 8
  store ptr %0, ptr %2, align 8, !tbaa !62
  %3 = load ptr, ptr %2, align 8
  store ptr getelementptr inbounds inrange(-16, 24) ({ [5 x ptr] }, ptr @_ZTVN6icu_777UObjectE, i32 0, i32 0, i32 2), ptr %3, align 8, !tbaa !15
  ret void
}

; Function Attrs: inlinehint mustprogress nounwind uwtable
define linkonce_odr void @_ZN6icu_7711ReplaceableC2Ev(ptr noundef nonnull align 8 dereferenceable(8) %0) unnamed_addr #3 comdat align 2 {
  %2 = alloca ptr, align 8
  store ptr %0, ptr %2, align 8, !tbaa !68
  %3 = load ptr, ptr %2, align 8
  call void @_ZN6icu_777UObjectC2Ev(ptr noundef nonnull align 8 dereferenceable(8) %3) #9
  store ptr getelementptr inbounds inrange(-16, 88) ({ [13 x ptr] }, ptr @_ZTVN6icu_7711ReplaceableE, i32 0, i32 0, i32 2), ptr %3, align 8, !tbaa !15
  ret void
}

; Function Attrs: inlinehint mustprogress uwtable
define linkonce_odr void @_ZN6icu_7713UnicodeStringC2Ev(ptr noundef nonnull align 8 dereferenceable(64) %0) unnamed_addr #7 comdat align 2 {
  %2 = alloca ptr, align 8
  store ptr %0, ptr %2, align 8, !tbaa !21
  %3 = load ptr, ptr %2, align 8
  call void @_ZN6icu_7711ReplaceableC2Ev(ptr noundef nonnull align 8 dereferenceable(8) %3)
  store ptr getelementptr inbounds inrange(-16, 88) ({ [13 x ptr] }, ptr @_ZTVN6icu_7713UnicodeStringE, i32 0, i32 0, i32 2), ptr %3, align 8, !tbaa !15
  %4 = getelementptr inbounds nuw %"class.icu_77::UnicodeString", ptr %3, i32 0, i32 1
  %5 = getelementptr inbounds nuw %struct.anon, ptr %4, i32 0, i32 0
  store i16 2, ptr %5, align 8, !tbaa !53
  ret void
}

; Function Attrs: inlinehint mustprogress nounwind uwtable
define internal noundef signext i8 @_ZL9U_FAILURE10UErrorCode(i32 noundef %0) #3 {
  %2 = alloca i32, align 4
  store i32 %0, ptr %2, align 4, !tbaa !11
  %3 = load i32, ptr %2, align 4, !tbaa !11
  %4 = icmp sgt i32 %3, 0
  %5 = zext i1 %4 to i8
  ret i8 %5
}

; Function Attrs: mustprogress uwtable
define noundef nonnull align 8 dereferenceable(64) ptr @_ZNK6icu_7725ScientificNumberFormatter6formatERKNS_11FormattableERNS_13UnicodeStringER10UErrorCode(ptr noundef nonnull align 8 dereferenceable(88) %0, ptr noundef nonnull align 8 dereferenceable(112) %1, ptr noundef nonnull align 8 dereferenceable(64) %2, ptr noundef nonnull align 4 dereferenceable(4) %3) #0 align 2 personality ptr @__gxx_personality_v0 {
  %5 = alloca ptr, align 8
  %6 = alloca ptr, align 8
  %7 = alloca ptr, align 8
  %8 = alloca ptr, align 8
  %9 = alloca ptr, align 8
  %10 = alloca %"class.icu_77::UnicodeString", align 8
  %11 = alloca %"class.icu_77::FieldPositionIterator", align 8
  %12 = alloca ptr, align 8
  %13 = alloca i32, align 4
  store ptr %0, ptr %6, align 8, !tbaa !13
  store ptr %1, ptr %7, align 8, !tbaa !64
  store ptr %2, ptr %8, align 8, !tbaa !21
  store ptr %3, ptr %9, align 8, !tbaa !8
  %14 = load ptr, ptr %6, align 8
  %15 = load ptr, ptr %9, align 8, !tbaa !8
  %16 = load i32, ptr %15, align 4, !tbaa !11
  %17 = call noundef signext i8 @_ZL9U_FAILURE10UErrorCode(i32 noundef %16)
  %18 = icmp ne i8 %17, 0
  br i1 %18, label %19, label %21

19:                                               ; preds = %4
  %20 = load ptr, ptr %8, align 8, !tbaa !21
  store ptr %20, ptr %5, align 8
  br label %51

21:                                               ; preds = %4
  call void @llvm.lifetime.start.p0(i64 64, ptr %10) #9
  call void @_ZN6icu_7713UnicodeStringC2Ev(ptr noundef nonnull align 8 dereferenceable(64) %10)
  call void @llvm.lifetime.start.p0(i64 24, ptr %11) #9
  invoke void @_ZN6icu_7721FieldPositionIteratorC1Ev(ptr noundef nonnull align 8 dereferenceable(20) %11)
          to label %22 unwind label %42

22:                                               ; preds = %21
  %23 = getelementptr inbounds nuw %"class.icu_77::ScientificNumberFormatter", ptr %14, i32 0, i32 2
  %24 = load ptr, ptr %23, align 8, !tbaa !55
  %25 = load ptr, ptr %7, align 8, !tbaa !64
  %26 = load ptr, ptr %9, align 8, !tbaa !8
  %27 = load ptr, ptr %24, align 8, !tbaa !15
  %28 = getelementptr inbounds ptr, ptr %27, i64 6
  %29 = load ptr, ptr %28, align 8
  %30 = invoke noundef nonnull align 8 dereferenceable(64) ptr %29(ptr noundef nonnull align 8 dereferenceable(60) %24, ptr noundef nonnull align 8 dereferenceable(112) %25, ptr noundef nonnull align 8 dereferenceable(64) %10, ptr noundef %11, ptr noundef nonnull align 4 dereferenceable(4) %26)
          to label %31 unwind label %46

31:                                               ; preds = %22
  %32 = getelementptr inbounds nuw %"class.icu_77::ScientificNumberFormatter", ptr %14, i32 0, i32 3
  %33 = load ptr, ptr %32, align 8, !tbaa !59
  %34 = getelementptr inbounds nuw %"class.icu_77::ScientificNumberFormatter", ptr %14, i32 0, i32 1
  %35 = load ptr, ptr %8, align 8, !tbaa !21
  %36 = load ptr, ptr %9, align 8, !tbaa !8
  %37 = load ptr, ptr %33, align 8, !tbaa !15
  %38 = getelementptr inbounds ptr, ptr %37, i64 4
  %39 = load ptr, ptr %38, align 8
  %40 = invoke noundef nonnull align 8 dereferenceable(64) ptr %39(ptr noundef nonnull align 8 dereferenceable(8) %33, ptr noundef nonnull align 8 dereferenceable(64) %10, ptr noundef nonnull align 8 dereferenceable(20) %11, ptr noundef nonnull align 8 dereferenceable(64) %34, ptr noundef nonnull align 8 dereferenceable(64) %35, ptr noundef nonnull align 4 dereferenceable(4) %36)
          to label %41 unwind label %46

41:                                               ; preds = %31
  store ptr %40, ptr %5, align 8
  call void @_ZN6icu_7721FieldPositionIteratorD1Ev(ptr noundef nonnull align 8 dereferenceable(20) %11) #9
  call void @llvm.lifetime.end.p0(i64 24, ptr %11) #9
  call void @_ZN6icu_7713UnicodeStringD1Ev(ptr noundef nonnull align 8 dereferenceable(64) %10) #9
  call void @llvm.lifetime.end.p0(i64 64, ptr %10) #9
  br label %51

42:                                               ; preds = %21
  %43 = landingpad { ptr, i32 }
          cleanup
  %44 = extractvalue { ptr, i32 } %43, 0
  store ptr %44, ptr %12, align 8
  %45 = extractvalue { ptr, i32 } %43, 1
  store i32 %45, ptr %13, align 4
  br label %50

46:                                               ; preds = %31, %22
  %47 = landingpad { ptr, i32 }
          cleanup
  %48 = extractvalue { ptr, i32 } %47, 0
  store ptr %48, ptr %12, align 8
  %49 = extractvalue { ptr, i32 } %47, 1
  store i32 %49, ptr %13, align 4
  call void @_ZN6icu_7721FieldPositionIteratorD1Ev(ptr noundef nonnull align 8 dereferenceable(20) %11) #9
  br label %50

50:                                               ; preds = %46, %42
  call void @llvm.lifetime.end.p0(i64 24, ptr %11) #9
  call void @_ZN6icu_7713UnicodeStringD1Ev(ptr noundef nonnull align 8 dereferenceable(64) %10) #9
  call void @llvm.lifetime.end.p0(i64 64, ptr %10) #9
  br label %53

51:                                               ; preds = %41, %19
  %52 = load ptr, ptr %5, align 8
  ret ptr %52

53:                                               ; preds = %50
  %54 = load ptr, ptr %12, align 8
  %55 = load i32, ptr %13, align 4
  %56 = insertvalue { ptr, i32 } poison, ptr %54, 0
  %57 = insertvalue { ptr, i32 } %56, i32 %55, 1
  resume { ptr, i32 } %57
}