; Function Attrs: mustprogress uwtable
define noundef nonnull align 8 dereferenceable(64) ptr @_ZNK6icu_7725ScientificNumberFormatter6formatERKNS_11FormattableERNS_13UnicodeStringER10UErrorCode(ptr noundef nonnull align 8 dereferenceable(88) %0, ptr noundef nonnull align 8 dereferenceable(112) %1, ptr noundef nonnull align 8 dereferenceable(64) %2, ptr noundef nonnull align 4 dereferenceable(4) %3) local_unnamed_addr #0 align 2 personality ptr @__gxx_personality_v0 {
  %5 = alloca %"class.icu_77::UnicodeString", align 8
  %6 = alloca %"class.icu_77::FieldPositionIterator", align 8
  %7 = load i32, ptr %3, align 4, !tbaa !6
  %8 = icmp slt i32 %7, 1
  br i1 %8, label %9, label %32

9:                                                ; preds = %4
  call void @llvm.lifetime.start.p0(i64 64, ptr nonnull %5) #7
  store ptr getelementptr inbounds nuw inrange(-16, 88) (i8, ptr @_ZTVN6icu_7713UnicodeStringE, i64 16), ptr %5, align 8, !tbaa !3
  %10 = getelementptr inbounds nuw i8, ptr %5, i64 8
  store i16 2, ptr %10, align 8, !tbaa !17
  call void @llvm.lifetime.start.p0(i64 24, ptr nonnull %6) #7
  invoke void @_ZN6icu_7721FieldPositionIteratorC1Ev(ptr noundef nonnull align 8 dereferenceable(20) %6)
          to label %11 unwind label %27

11:                                               ; preds = %9
  %12 = getelementptr inbounds nuw i8, ptr %0, i64 72
  %13 = load ptr, ptr %12, align 8, !tbaa !22
  %14 = load ptr, ptr %13, align 8, !tbaa !3
  %15 = getelementptr inbounds nuw i8, ptr %14, i64 48
  %16 = load ptr, ptr %15, align 8
  %17 = invoke noundef nonnull align 8 dereferenceable(64) ptr %16(ptr noundef nonnull align 8 dereferenceable(60) %13, ptr noundef nonnull align 8 dereferenceable(112) %1, ptr noundef nonnull align 8 dereferenceable(64) %5, ptr noundef nonnull %6, ptr noundef nonnull align 4 dereferenceable(4) %3)
          to label %18 unwind label %29

18:                                               ; preds = %11
  %19 = getelementptr inbounds nuw i8, ptr %0, i64 80
  %20 = load ptr, ptr %19, align 8, !tbaa !29
  %21 = getelementptr inbounds nuw i8, ptr %0, i64 8
  %22 = load ptr, ptr %20, align 8, !tbaa !3
  %23 = getelementptr inbounds nuw i8, ptr %22, i64 32
  %24 = load ptr, ptr %23, align 8
  %25 = invoke noundef nonnull align 8 dereferenceable(64) ptr %24(ptr noundef nonnull align 8 dereferenceable(8) %20, ptr noundef nonnull align 8 dereferenceable(64) %5, ptr noundef nonnull align 8 dereferenceable(20) %6, ptr noundef nonnull align 8 dereferenceable(64) %21, ptr noundef nonnull align 8 dereferenceable(64) %2, ptr noundef nonnull align 4 dereferenceable(4) %3)
          to label %26 unwind label %29

26:                                               ; preds = %18
  call void @_ZN6icu_7721FieldPositionIteratorD1Ev(ptr noundef nonnull align 8 dereferenceable(20) %6) #7
  call void @llvm.lifetime.end.p0(i64 24, ptr nonnull %6) #7
  call void @_ZN6icu_7713UnicodeStringD1Ev(ptr noundef nonnull align 8 dereferenceable(64) %5) #7
  call void @llvm.lifetime.end.p0(i64 64, ptr nonnull %5) #7
  br label %32

27:                                               ; preds = %9
  %28 = landingpad { ptr, i32 }
          cleanup
  br label %31

29:                                               ; preds = %18, %11
  %30 = landingpad { ptr, i32 }
          cleanup
  call void @_ZN6icu_7721FieldPositionIteratorD1Ev(ptr noundef nonnull align 8 dereferenceable(20) %6) #7
  br label %31

31:                                               ; preds = %29, %27
  %.pn = phi { ptr, i32 } [ %30, %29 ], [ %28, %27 ]
  call void @llvm.lifetime.end.p0(i64 24, ptr nonnull %6) #7
  call void @_ZN6icu_7713UnicodeStringD1Ev(ptr noundef nonnull align 8 dereferenceable(64) %5) #7
  call void @llvm.lifetime.end.p0(i64 64, ptr nonnull %5) #7
  resume { ptr, i32 } %.pn

32:                                               ; preds = %4, %26
  %.010 = phi ptr [ %25, %26 ], [ %2, %4 ]
  ret ptr %.010
}